; Function Attrs: mustprogress nounwind uwtable
define hidden noundef ptr @_ZNK7MulNode5ValueEP8PhaseGVN(ptr noundef nonnull align 8 dereferenceable(52) %0, ptr nocapture noundef readonly %1) unnamed_addr #0 align 2 {
  %3 = getelementptr inbounds i8, ptr %0, i64 8
  %4 = load ptr, ptr %3, align 8
  %5 = getelementptr inbounds i8, ptr %4, i64 8
  %6 = load ptr, ptr %5, align 8
  %7 = getelementptr inbounds i8, ptr %1, i64 40
  %8 = load ptr, ptr %7, align 8
  %9 = getelementptr inbounds i8, ptr %6, i64 40
  %10 = load i32, ptr %9, align 8
  %11 = getelementptr inbounds i8, ptr %8, i64 16
  %12 = load ptr, ptr %11, align 8
  %13 = zext i32 %10 to i64
  %14 = getelementptr inbounds ptr, ptr %12, i64 %13
  %15 = load ptr, ptr %14, align 8
  %16 = getelementptr inbounds i8, ptr %4, i64 16
  %17 = load ptr, ptr %16, align 8
  %18 = getelementptr inbounds i8, ptr %17, i64 40
  %19 = load i32, ptr %18, align 8
  %20 = zext i32 %19 to i64
  %21 = getelementptr inbounds ptr, ptr %12, i64 %20
  %22 = load ptr, ptr %21, align 8
  %23 = load ptr, ptr @_ZN4Type3TOPE, align 8
  %24 = icmp eq ptr %15, %23
  %25 = icmp eq ptr %22, %23
  %or.cond28 = or i1 %24, %25
  br i1 %or.cond28, label %61, label %26

26:                                               ; preds = %2
  %27 = load ptr, ptr %0, align 8
  %28 = load ptr, ptr %27, align 8
  %29 = tail call noundef i32 %28(ptr noundef nonnull align 8 dereferenceable(52) %0) #10
  switch i32 %29, label %48 [
    i32 247, label %30
    i32 246, label %30
    i32 29, label %30
    i32 28, label %30
  ]

30:                                               ; preds = %26, %26, %26, %26
  %31 = load ptr, ptr %0, align 8
  %32 = getelementptr inbounds i8, ptr %31, i64 208
  %33 = load ptr, ptr %32, align 8
  %34 = tail call noundef ptr %33(ptr noundef nonnull align 8 dereferenceable(52) %0) #10
  %35 = tail call noundef ptr @_ZNK4Type11meet_helperEPKS_b(ptr noundef nonnull align 8 dereferenceable(20) %15, ptr noundef %34, i1 noundef zeroext false) #10
  %36 = load ptr, ptr %34, align 8
  %37 = getelementptr inbounds i8, ptr %36, i64 128
  %38 = load ptr, ptr %37, align 8
  %39 = tail call noundef ptr %38(ptr noundef nonnull align 8 dereferenceable(20) %34) #10
  %40 = tail call noundef zeroext i1 @_ZN4Type6equalsEPKS_S1_(ptr noundef %35, ptr noundef %39) #10
  br i1 %40, label %61, label %41

41:                                               ; preds = %30
  %42 = tail call noundef ptr @_ZNK4Type11meet_helperEPKS_b(ptr noundef nonnull align 8 dereferenceable(20) %22, ptr noundef nonnull %34, i1 noundef zeroext false) #10
  %43 = load ptr, ptr %34, align 8
  %44 = getelementptr inbounds i8, ptr %43, i64 128
  %45 = load ptr, ptr %44, align 8
  %46 = tail call noundef ptr %45(ptr noundef nonnull align 8 dereferenceable(20) %34) #10
  %47 = tail call noundef zeroext i1 @_ZN4Type6equalsEPKS_S1_(ptr noundef %42, ptr noundef %46) #10
  br i1 %47, label %61, label %48

48:                                               ; preds = %26, %41
  %49 = load ptr, ptr @_ZN4Type6BOTTOME, align 8
  %50 = icmp eq ptr %15, %49
  %51 = icmp eq ptr %22, %49
  %or.cond = or i1 %50, %51
  %52 = load ptr, ptr %0, align 8
  br i1 %or.cond, label %53, label %57

53:                                               ; preds = %48
  %54 = getelementptr inbounds i8, ptr %52, i64 40
  %55 = load ptr, ptr %54, align 8
  %56 = tail call noundef ptr %55(ptr noundef nonnull align 8 dereferenceable(52) %0) #10
  br label %61

57:                                               ; preds = %48
  %58 = getelementptr inbounds i8, ptr %52, i64 192
  %59 = load ptr, ptr %58, align 8
  %60 = tail call noundef ptr %59(ptr noundef nonnull align 8 dereferenceable(52) %0, ptr noundef %15, ptr noundef %22) #10
  br label %61

61:                                               ; preds = %41, %30, %2, %57, %53
  %.0 = phi ptr [ %56, %53 ], [ %60, %57 ], [ %23, %2 ], [ %34, %30 ], [ %34, %41 ]
  ret ptr %.0
}